; Function Attrs: mustprogress uwtable
define void @_ZN7rocksdb21ShortenedIndexBuilder32FindShortestInternalKeySeparatorERKNS_10ComparatorEPNSt7__cxx1112basic_stringIcSt11char_traitsIcESaIcEEERKNS_5SliceE(ptr noundef nonnull align 8 dereferenceable(48) %comparator, ptr noundef nonnull %start, ptr nocapture noundef nonnull readonly align 8 dereferenceable(16) %limit) local_unnamed_addr #2 align 2 personality ptr @__gxx_personality_v0 {
entry:
  %value.addr.i = alloca i64, align 8
  %user_start = alloca %"class.rocksdb::Slice", align 8
  %user_limit = alloca %"class.rocksdb::Slice", align 8
  %tmp = alloca %"class.std::__cxx11::basic_string", align 8
  %ref.tmp4 = alloca %"class.std::allocator.0", align 1
  %ref.tmp10 = alloca %"class.rocksdb::Slice", align 8
  %call.i = tail call noundef ptr @_ZNKSt7__cxx1112basic_stringIcSt11char_traitsIcESaIcEE4dataEv(ptr noundef nonnull align 8 dereferenceable(32) %start) #20
  %call2.i = tail call noundef i64 @_ZNKSt7__cxx1112basic_stringIcSt11char_traitsIcESaIcEE4sizeEv(ptr noundef nonnull align 8 dereferenceable(32) %start) #20
  %sub.i = add i64 %call2.i, -8
  store ptr %call.i, ptr %user_start, align 8
  %0 = getelementptr inbounds i8, ptr %user_start, i64 8
  store i64 %sub.i, ptr %0, align 8
  %1 = load ptr, ptr %limit, align 8
  %size_.i.i4 = getelementptr inbounds i8, ptr %limit, i64 8
  %2 = load i64, ptr %size_.i.i4, align 8
  %sub.i5 = add i64 %2, -8
  store ptr %1, ptr %user_limit, align 8
  %3 = getelementptr inbounds i8, ptr %user_limit, i64 8
  store i64 %sub.i5, ptr %3, align 8
  call void @_ZNSaIcEC1Ev(ptr noundef nonnull align 1 dereferenceable(1) %ref.tmp4) #20
  invoke void @_ZNSt7__cxx1112basic_stringIcSt11char_traitsIcESaIcEEC1EPKcmRKS3_(ptr noundef nonnull align 8 dereferenceable(32) %tmp, ptr noundef %call.i, i64 noundef %sub.i, ptr noundef nonnull align 1 dereferenceable(1) %ref.tmp4)
          to label %invoke.cont unwind label %lpad

invoke.cont:                                      ; preds = %entry
  call void @_ZNSaIcED1Ev(ptr noundef nonnull align 1 dereferenceable(1) %ref.tmp4) #20
  %vtable = load ptr, ptr %comparator, align 8
  %vfn = getelementptr inbounds i8, ptr %vtable, i64 160
  %4 = load ptr, ptr %vfn, align 8
  invoke void %4(ptr noundef nonnull align 8 dereferenceable(48) %comparator, ptr noundef nonnull %tmp, ptr noundef nonnull align 8 dereferenceable(16) %user_limit)
          to label %invoke.cont6 unwind label %lpad5

invoke.cont6:                                     ; preds = %invoke.cont
  %call7 = call noundef i64 @_ZNKSt7__cxx1112basic_stringIcSt11char_traitsIcESaIcEE4sizeEv(ptr noundef nonnull align 8 dereferenceable(32) %tmp) #20
  %cmp.not = icmp ugt i64 %call7, %sub.i
  br i1 %cmp.not, label %if.end, label %land.rhs

land.rhs:                                         ; preds = %invoke.cont6
  %add.ptr = getelementptr inbounds i8, ptr %comparator, i64 32
  %call.i10 = call noundef ptr @_ZNKSt7__cxx1112basic_stringIcSt11char_traitsIcESaIcEE4dataEv(ptr noundef nonnull align 8 dereferenceable(32) %tmp) #20
  store ptr %call.i10, ptr %ref.tmp10, align 8
  %size_.i11 = getelementptr inbounds i8, ptr %ref.tmp10, i64 8
  %call2.i12 = call noundef i64 @_ZNKSt7__cxx1112basic_stringIcSt11char_traitsIcESaIcEE4sizeEv(ptr noundef nonnull align 8 dereferenceable(32) %tmp) #20
  store i64 %call2.i12, ptr %size_.i11, align 8
  %vtable12 = load ptr, ptr %add.ptr, align 8
  %vfn13 = getelementptr inbounds i8, ptr %vtable12, i64 16
  %5 = load ptr, ptr %vfn13, align 8
  %call15 = invoke noundef i32 %5(ptr noundef nonnull align 8 dereferenceable(8) %add.ptr, ptr noundef nonnull align 8 dereferenceable(16) %user_start, ptr noundef nonnull align 8 dereferenceable(16) %ref.tmp10)
          to label %invoke.cont14 unwind label %lpad5

invoke.cont14:                                    ; preds = %land.rhs
  %cmp16 = icmp slt i32 %call15, 0
  br i1 %cmp16, label %if.then, label %if.end

if.then:                                          ; preds = %invoke.cont14
  %6 = load i8, ptr @_ZN7rocksdb17kValueTypeForSeekE, align 1
  %conv.i = zext i8 %6 to i64
  %or.i = or disjoint i64 %conv.i, -256
  call void @llvm.lifetime.start.p0(i64 8, ptr nonnull %value.addr.i)
  store i64 %or.i, ptr %value.addr.i, align 8
  %call.i1314 = invoke noundef nonnull align 8 dereferenceable(32) ptr @_ZNSt7__cxx1112basic_stringIcSt11char_traitsIcESaIcEE6appendEPKcm(ptr noundef nonnull align 8 dereferenceable(32) %tmp, ptr noundef nonnull %value.addr.i, i64 noundef 8)
          to label %invoke.cont19 unwind label %lpad5

invoke.cont19:                                    ; preds = %if.then
  call void @llvm.lifetime.end.p0(i64 8, ptr nonnull %value.addr.i)
  call void @_ZNSt7__cxx1112basic_stringIcSt11char_traitsIcESaIcEE4swapERS4_(ptr noundef nonnull align 8 dereferenceable(32) %start, ptr noundef nonnull align 8 dereferenceable(32) %tmp) #20
  br label %if.end

lpad:                                             ; preds = %entry
  %7 = landingpad { ptr, i32 }
          cleanup
  call void @_ZNSaIcED1Ev(ptr noundef nonnull align 1 dereferenceable(1) %ref.tmp4) #20
  br label %eh.resume

lpad5:                                            ; preds = %if.then, %land.rhs, %invoke.cont
  %8 = landingpad { ptr, i32 }
          cleanup
  call void @_ZNSt7__cxx1112basic_stringIcSt11char_traitsIcESaIcEED1Ev(ptr noundef nonnull align 8 dereferenceable(32) %tmp) #20
  br label %eh.resume

if.end:                                           ; preds = %invoke.cont6, %invoke.cont19, %invoke.cont14
  call void @_ZNSt7__cxx1112basic_stringIcSt11char_traitsIcESaIcEED1Ev(ptr noundef nonnull align 8 dereferenceable(32) %tmp) #20
  ret void

eh.resume:                                        ; preds = %lpad5, %lpad
  %.pn = phi { ptr, i32 } [ %8, %lpad5 ], [ %7, %lpad ]
  resume { ptr, i32 } %.pn
}